; Function Attrs: nounwind uwtable
define internal range(i32 0, 2) i32 @poly1305_set_ctx_params(ptr noundef %0, ptr noundef %1) #0 {
  %3 = tail call ptr @OSSL_PARAM_locate_const(ptr noundef %1, ptr noundef nonnull @.str.3) #4
  %.not = icmp eq ptr %3, null
  br i1 %.not, label %11, label %4

4:                                                ; preds = %2
  %5 = getelementptr inbounds nuw i8, ptr %3, i64 24
  %6 = load i64, ptr %5, align 8, !tbaa !17
  %.not.i = icmp eq i64 %6, 32
  br i1 %.not.i, label %poly1305_setkey.exit, label %poly1305_setkey.exit.thread

poly1305_setkey.exit.thread:                      ; preds = %4
  tail call void @ERR_new() #4
  tail call void @ERR_set_debug(ptr noundef nonnull @.str, i32 noundef 85, ptr noundef nonnull @__func__.poly1305_setkey) #4
  tail call void (i32, i32, ptr, ...) @ERR_set_error(i32 noundef 57, i32 noundef 105, ptr noundef null) #4
  br label %11

poly1305_setkey.exit:                             ; preds = %4
  %7 = getelementptr inbounds nuw i8, ptr %3, i64 16
  %8 = load ptr, ptr %7, align 8, !tbaa !20
  %9 = getelementptr inbounds nuw i8, ptr %0, i64 16
  tail call void @Poly1305_Init(ptr noundef nonnull %9, ptr noundef %8) #4
  %10 = getelementptr inbounds nuw i8, ptr %0, i64 8
  store i32 0, ptr %10, align 8, !tbaa !21
  br label %11

11:                                               ; preds = %2, %poly1305_setkey.exit, %poly1305_setkey.exit.thread
  %.0 = phi i32 [ 0, %poly1305_setkey.exit.thread ], [ 1, %poly1305_setkey.exit ], [ 1, %2 ]
  ret i32 %.0
}